; Function Attrs: nounwind uwtable
define nonnull ptr @l_Lean_IR_Arg_hasFreeVar___boxed(ptr noundef %0, ptr noundef %1) local_unnamed_addr #0 {
  %3 = ptrtoint ptr %0 to i64
  %4 = and i64 %3, 1
  %.not.i.i.i = icmp eq i64 %4, 0
  br i1 %.not.i.i.i, label %8, label %5

5:                                                ; preds = %2
  %6 = lshr i64 %3, 1
  %7 = trunc i64 %6 to i32
  br label %lean_obj_tag.exit.i.i

8:                                                ; preds = %2
  %9 = getelementptr i8, ptr %0, i64 4
  %.val.i.i.i = load i32, ptr %9, align 4
  %10 = lshr i32 %.val.i.i.i, 24
  br label %lean_obj_tag.exit.i.i

lean_obj_tag.exit.i.i:                            ; preds = %8, %5
  %.0.i6.i.i = phi i32 [ %7, %5 ], [ %10, %8 ]
  %11 = icmp eq i32 %.0.i6.i.i, 0
  br i1 %11, label %12, label %lean_obj_tag.exit.i.i.l_Lean_IR_Arg_hasFreeVar.exit_crit_edge

lean_obj_tag.exit.i.i.l_Lean_IR_Arg_hasFreeVar.exit_crit_edge: ; preds = %lean_obj_tag.exit.i.i
  %.pre = ptrtoint ptr %1 to i64
  %.pre9 = and i64 %.pre, 1
  br label %l_Lean_IR_Arg_hasFreeVar.exit

12:                                               ; preds = %lean_obj_tag.exit.i.i
  %13 = getelementptr inbounds nuw i8, ptr %0, i64 8
  %14 = load ptr, ptr %13, align 8, !tbaa !13
  %15 = ptrtoint ptr %1 to i64
  %16 = and i64 %15, 1
  %17 = icmp ne i64 %16, 0
  %18 = ptrtoint ptr %14 to i64
  %19 = and i64 %18, 1
  %20 = icmp ne i64 %19, 0
  %or.cond.i.i = select i1 %17, i1 %20, i1 false
  br i1 %or.cond.i.i, label %21, label %.critedge.i.i.i, !prof !23

21:                                               ; preds = %12
  %22 = icmp eq ptr %1, %14
  br label %lean_nat_eq.exit.i.i

.critedge.i.i.i:                                  ; preds = %12
  %23 = tail call zeroext i1 @lean_nat_big_eq(ptr noundef %1, ptr noundef %14) #3
  br label %lean_nat_eq.exit.i.i

lean_nat_eq.exit.i.i:                             ; preds = %.critedge.i.i.i, %21
  %.0.i.i.i = phi i1 [ %22, %21 ], [ %23, %.critedge.i.i.i ]
  %24 = select i1 %.0.i.i.i, i64 3, i64 1
  br label %l_Lean_IR_Arg_hasFreeVar.exit

l_Lean_IR_Arg_hasFreeVar.exit:                    ; preds = %lean_obj_tag.exit.i.i.l_Lean_IR_Arg_hasFreeVar.exit_crit_edge, %lean_nat_eq.exit.i.i
  %.pre-phi10 = phi i64 [ %.pre9, %lean_obj_tag.exit.i.i.l_Lean_IR_Arg_hasFreeVar.exit_crit_edge ], [ %16, %lean_nat_eq.exit.i.i ]
  %.0.i.i = phi i64 [ 1, %lean_obj_tag.exit.i.i.l_Lean_IR_Arg_hasFreeVar.exit_crit_edge ], [ %24, %lean_nat_eq.exit.i.i ]
  %.not = icmp eq i64 %.pre-phi10, 0
  br i1 %.not, label %25, label %lean_dec.exit5

25:                                               ; preds = %l_Lean_IR_Arg_hasFreeVar.exit
  %26 = load i32, ptr %1, align 4, !tbaa !4
  %27 = icmp sgt i32 %26, 1
  br i1 %27, label %28, label %30, !prof !9

28:                                               ; preds = %25
  %29 = add nsw i32 %26, -1
  store i32 %29, ptr %1, align 4, !tbaa !4
  br label %lean_dec.exit5

30:                                               ; preds = %25
  %.not.i = icmp eq i32 %26, 0
  br i1 %.not.i, label %lean_dec.exit5, label %31

31:                                               ; preds = %30
  tail call void @lean_dec_ref_cold(ptr noundef nonnull %1) #3
  br label %lean_dec.exit5

lean_dec.exit5:                                   ; preds = %31, %30, %28, %l_Lean_IR_Arg_hasFreeVar.exit
  br i1 %.not.i.i.i, label %32, label %lean_dec.exit

32:                                               ; preds = %lean_dec.exit5
  %33 = load i32, ptr %0, align 4, !tbaa !4
  %34 = icmp sgt i32 %33, 1
  br i1 %34, label %35, label %37, !prof !9

35:                                               ; preds = %32
  %36 = add nsw i32 %33, -1
  store i32 %36, ptr %0, align 4, !tbaa !4
  br label %lean_dec.exit

37:                                               ; preds = %32
  %.not.i6 = icmp eq i32 %33, 0
  br i1 %.not.i6, label %lean_dec.exit, label %38

38:                                               ; preds = %37
  tail call void @lean_dec_ref_cold(ptr noundef nonnull %0) #3
  br label %lean_dec.exit

lean_dec.exit:                                    ; preds = %38, %37, %35, %lean_dec.exit5
  %39 = inttoptr i64 %.0.i.i to ptr
  ret ptr %39
}